target datalayout = "e-m:e-p270:32:32-p271:32:32-p272:64:64-i64:64-i128:128-f80:128-n8:16:32:64-S128"
target triple = "x86_64-pc-linux-gnu"

%"struct.folly::(anonymous namespace)::BenchmarksToRun" = type { ptr, ptr, %"class.std::vector.133", %"class.std::vector.138" }
%"class.std::vector.133" = type { %"struct.std::_Vector_base.134" }
%"struct.std::_Vector_base.134" = type { %"struct.std::_Vector_base<const folly::detail::BenchmarkRegistration *, std::allocator<const folly::detail::BenchmarkRegistration *>>::_Vector_impl" }
%"struct.std::_Vector_base<const folly::detail::BenchmarkRegistration *, std::allocator<const folly::detail::BenchmarkRegistration *>>::_Vector_impl" = type { %"struct.std::_Vector_base<const folly::detail::BenchmarkRegistration *, std::allocator<const folly::detail::BenchmarkRegistration *>>::_Vector_impl_data" }
%"struct.std::_Vector_base<const folly::detail::BenchmarkRegistration *, std::allocator<const folly::detail::BenchmarkRegistration *>>::_Vector_impl_data" = type { ptr, ptr, ptr }
%"class.std::vector.138" = type { %"struct.std::_Vector_base.139" }
%"struct.std::_Vector_base.139" = type { %"struct.std::_Vector_base<unsigned long, std::allocator<unsigned long>>::_Vector_impl" }
%"struct.std::_Vector_base<unsigned long, std::allocator<unsigned long>>::_Vector_impl" = type { %"struct.std::_Vector_base<unsigned long, std::allocator<unsigned long>>::_Vector_impl_data" }
%"struct.std::_Vector_base<unsigned long, std::allocator<unsigned long>>::_Vector_impl_data" = type { ptr, ptr, ptr }

; Function Attrs: mustprogress nounwind uwtable
define linkonce_odr void @_ZNSt15__new_allocatorIPKN5folly6detail21BenchmarkRegistrationEE10deallocateEPS4_m(ptr noundef nonnull align 1 dereferenceable(1) %0, ptr noundef %1, i64 noundef %2) #0 comdat align 2 {
  %4 = alloca ptr, align 8
  %5 = alloca ptr, align 8
  %6 = alloca i64, align 8
  store ptr %0, ptr %4, align 8, !tbaa !834
  store ptr %1, ptr %5, align 8, !tbaa !766
  store i64 %2, ptr %6, align 8, !tbaa !28
  %7 = load ptr, ptr %5, align 8, !tbaa !766
  %8 = load i64, ptr %6, align 8, !tbaa !28
  %9 = mul i64 %8, 8
  call void @_ZdlPvm(ptr noundef %7, i64 noundef %9) #38
  ret void
}

; Function Attrs: mustprogress nounwind uwtable
define linkonce_odr void @_ZNSt15__new_allocatorImE10deallocateEPmm(ptr noundef nonnull align 1 dereferenceable(1) %0, ptr noundef %1, i64 noundef %2) #0 comdat align 2 {
  %4 = alloca ptr, align 8
  %5 = alloca ptr, align 8
  %6 = alloca i64, align 8
  store ptr %0, ptr %4, align 8, !tbaa !846
  store ptr %1, ptr %5, align 8, !tbaa !132
  store i64 %2, ptr %6, align 8, !tbaa !28
  %7 = load ptr, ptr %5, align 8, !tbaa !132
  %8 = load i64, ptr %6, align 8, !tbaa !28
  %9 = mul i64 %8, 8
  call void @_ZdlPvm(ptr noundef %7, i64 noundef %9) #38
  ret void
}

; Function Attrs: mustprogress uwtable
define linkonce_odr void @_ZNSt16allocator_traitsISaIPKN5folly6detail21BenchmarkRegistrationEEE10deallocateERS5_PS4_m(ptr noundef nonnull align 1 dereferenceable(1) %0, ptr noundef %1, i64 noundef %2) #1 comdat align 2 {
  %4 = alloca ptr, align 8
  %5 = alloca ptr, align 8
  %6 = alloca i64, align 8
  store ptr %0, ptr %4, align 8, !tbaa !830
  store ptr %1, ptr %5, align 8, !tbaa !766
  store i64 %2, ptr %6, align 8, !tbaa !28
  %7 = load ptr, ptr %4, align 8, !tbaa !830
  %8 = load ptr, ptr %5, align 8, !tbaa !766
  %9 = load i64, ptr %6, align 8, !tbaa !28
  call void @_ZNSt15__new_allocatorIPKN5folly6detail21BenchmarkRegistrationEE10deallocateEPS4_m(ptr noundef nonnull align 1 dereferenceable(1) %7, ptr noundef %8, i64 noundef %9)
  ret void
}

; Function Attrs: mustprogress nounwind uwtable
define linkonce_odr void @_ZNSt12_Destroy_auxILb1EE9__destroyIPPKN5folly6detail21BenchmarkRegistrationEEEvT_S8_(ptr noundef %0, ptr noundef %1) #0 comdat align 2 {
  %3 = alloca ptr, align 8
  %4 = alloca ptr, align 8
  store ptr %0, ptr %3, align 8, !tbaa !766
  store ptr %1, ptr %4, align 8, !tbaa !766
  ret void
}

; Function Attrs: mustprogress uwtable
define linkonce_odr void @_ZNSt16allocator_traitsISaImEE10deallocateERS0_Pmm(ptr noundef nonnull align 1 dereferenceable(1) %0, ptr noundef %1, i64 noundef %2) #1 comdat align 2 {
  %4 = alloca ptr, align 8
  %5 = alloca ptr, align 8
  %6 = alloca i64, align 8
  store ptr %0, ptr %4, align 8, !tbaa !840
  store ptr %1, ptr %5, align 8, !tbaa !132
  store i64 %2, ptr %6, align 8, !tbaa !28
  %7 = load ptr, ptr %4, align 8, !tbaa !840
  %8 = load ptr, ptr %5, align 8, !tbaa !132
  %9 = load i64, ptr %6, align 8, !tbaa !28
  call void @_ZNSt15__new_allocatorImE10deallocateEPmm(ptr noundef nonnull align 1 dereferenceable(1) %7, ptr noundef %8, i64 noundef %9)
  ret void
}

; Function Attrs: mustprogress nounwind uwtable
define linkonce_odr void @_ZNSt12_Destroy_auxILb1EE9__destroyIPmEEvT_S3_(ptr noundef %0, ptr noundef %1) #0 comdat align 2 {
  %3 = alloca ptr, align 8
  %4 = alloca ptr, align 8
  store ptr %0, ptr %3, align 8, !tbaa !132
  store ptr %1, ptr %4, align 8, !tbaa !132
  ret void
}

; Function Attrs: mustprogress nounwind uwtable
define linkonce_odr void @_ZNSt15__new_allocatorIPKN5folly6detail21BenchmarkRegistrationEED2Ev(ptr noundef nonnull align 1 dereferenceable(1) %0) unnamed_addr #0 comdat align 2 {
  %2 = alloca ptr, align 8
  store ptr %0, ptr %2, align 8, !tbaa !834
  ret void
}

; Function Attrs: mustprogress uwtable
define linkonce_odr void @_ZNSt12_Vector_baseIPKN5folly6detail21BenchmarkRegistrationESaIS4_EE13_M_deallocateEPS4_m(ptr noundef nonnull align 8 dereferenceable(24) %0, ptr noundef %1, i64 noundef %2) #1 comdat align 2 {
  %4 = alloca ptr, align 8
  %5 = alloca ptr, align 8
  %6 = alloca i64, align 8
  store ptr %0, ptr %4, align 8, !tbaa !826
  store ptr %1, ptr %5, align 8, !tbaa !766
  store i64 %2, ptr %6, align 8, !tbaa !28
  %7 = load ptr, ptr %4, align 8
  %8 = load ptr, ptr %5, align 8, !tbaa !766
  %9 = icmp ne ptr %8, null
  br i1 %9, label %10, label %14

10:                                               ; preds = %3
  %11 = getelementptr inbounds nuw %"struct.std::_Vector_base.134", ptr %7, i32 0, i32 0
  %12 = load ptr, ptr %5, align 8, !tbaa !766
  %13 = load i64, ptr %6, align 8, !tbaa !28
  call void @_ZNSt16allocator_traitsISaIPKN5folly6detail21BenchmarkRegistrationEEE10deallocateERS5_PS4_m(ptr noundef nonnull align 1 dereferenceable(1) %11, ptr noundef %12, i64 noundef %13)
  br label %14

14:                                               ; preds = %10, %3
  ret void
}

; Function Attrs: inlinehint mustprogress uwtable
define linkonce_odr void @_ZSt8_DestroyIPPKN5folly6detail21BenchmarkRegistrationEEvT_S6_(ptr noundef %0, ptr noundef %1) #6 comdat {
  %3 = alloca ptr, align 8
  %4 = alloca ptr, align 8
  store ptr %0, ptr %3, align 8, !tbaa !766
  store ptr %1, ptr %4, align 8, !tbaa !766
  %5 = load ptr, ptr %3, align 8, !tbaa !766
  %6 = load ptr, ptr %4, align 8, !tbaa !766
  call void @_ZNSt12_Destroy_auxILb1EE9__destroyIPPKN5folly6detail21BenchmarkRegistrationEEEvT_S8_(ptr noundef %5, ptr noundef %6)
  ret void
}

; Function Attrs: mustprogress nounwind uwtable
define linkonce_odr void @_ZNSt15__new_allocatorImED2Ev(ptr noundef nonnull align 1 dereferenceable(1) %0) unnamed_addr #0 comdat align 2 {
  %2 = alloca ptr, align 8
  store ptr %0, ptr %2, align 8, !tbaa !846
  ret void
}

; Function Attrs: mustprogress uwtable
define linkonce_odr void @_ZNSt12_Vector_baseImSaImEE13_M_deallocateEPmm(ptr noundef nonnull align 8 dereferenceable(24) %0, ptr noundef %1, i64 noundef %2) #1 comdat align 2 {
  %4 = alloca ptr, align 8
  %5 = alloca ptr, align 8
  %6 = alloca i64, align 8
  store ptr %0, ptr %4, align 8, !tbaa !836
  store ptr %1, ptr %5, align 8, !tbaa !132
  store i64 %2, ptr %6, align 8, !tbaa !28
  %7 = load ptr, ptr %4, align 8
  %8 = load ptr, ptr %5, align 8, !tbaa !132
  %9 = icmp ne ptr %8, null
  br i1 %9, label %10, label %14

10:                                               ; preds = %3
  %11 = getelementptr inbounds nuw %"struct.std::_Vector_base.139", ptr %7, i32 0, i32 0
  %12 = load ptr, ptr %5, align 8, !tbaa !132
  %13 = load i64, ptr %6, align 8, !tbaa !28
  call void @_ZNSt16allocator_traitsISaImEE10deallocateERS0_Pmm(ptr noundef nonnull align 1 dereferenceable(1) %11, ptr noundef %12, i64 noundef %13)
  br label %14

14:                                               ; preds = %10, %3
  ret void
}

; Function Attrs: inlinehint mustprogress uwtable
define linkonce_odr void @_ZSt8_DestroyIPmEvT_S1_(ptr noundef %0, ptr noundef %1) #6 comdat {
  %3 = alloca ptr, align 8
  %4 = alloca ptr, align 8
  store ptr %0, ptr %3, align 8, !tbaa !132
  store ptr %1, ptr %4, align 8, !tbaa !132
  %5 = load ptr, ptr %3, align 8, !tbaa !132
  %6 = load ptr, ptr %4, align 8, !tbaa !132
  call void @_ZNSt12_Destroy_auxILb1EE9__destroyIPmEEvT_S3_(ptr noundef %5, ptr noundef %6)
  ret void
}

; Function Attrs: mustprogress nounwind uwtable
define linkonce_odr void @_ZNSt12_Vector_baseIPKN5folly6detail21BenchmarkRegistrationESaIS4_EED2Ev(ptr noundef nonnull align 8 dereferenceable(24) %0) unnamed_addr #0 comdat align 2 personality ptr @__gxx_personality_v0 {
  %2 = alloca ptr, align 8
  store ptr %0, ptr %2, align 8, !tbaa !826
  %3 = load ptr, ptr %2, align 8
  %4 = getelementptr inbounds nuw %"struct.std::_Vector_base.134", ptr %3, i32 0, i32 0
  %5 = getelementptr inbounds nuw %"struct.std::_Vector_base<const folly::detail::BenchmarkRegistration *, std::allocator<const folly::detail::BenchmarkRegistration *>>::_Vector_impl_data", ptr %4, i32 0, i32 0
  %6 = load ptr, ptr %5, align 8, !tbaa !814
  %7 = getelementptr inbounds nuw %"struct.std::_Vector_base.134", ptr %3, i32 0, i32 0
  %8 = getelementptr inbounds nuw %"struct.std::_Vector_base<const folly::detail::BenchmarkRegistration *, std::allocator<const folly::detail::BenchmarkRegistration *>>::_Vector_impl_data", ptr %7, i32 0, i32 2
  %9 = load ptr, ptr %8, align 8, !tbaa !816
  %10 = getelementptr inbounds nuw %"struct.std::_Vector_base.134", ptr %3, i32 0, i32 0
  %11 = getelementptr inbounds nuw %"struct.std::_Vector_base<const folly::detail::BenchmarkRegistration *, std::allocator<const folly::detail::BenchmarkRegistration *>>::_Vector_impl_data", ptr %10, i32 0, i32 0
  %12 = load ptr, ptr %11, align 8, !tbaa !814
  %13 = ptrtoint ptr %9 to i64
  %14 = ptrtoint ptr %12 to i64
  %15 = sub i64 %13, %14
  %16 = sdiv exact i64 %15, 8
  invoke void @_ZNSt12_Vector_baseIPKN5folly6detail21BenchmarkRegistrationESaIS4_EE13_M_deallocateEPS4_m(ptr noundef nonnull align 8 dereferenceable(24) %3, ptr noundef %6, i64 noundef %16)
          to label %17 unwind label %19

17:                                               ; preds = %1
  %18 = getelementptr inbounds nuw %"struct.std::_Vector_base.134", ptr %3, i32 0, i32 0
  call void @_ZNSt15__new_allocatorIPKN5folly6detail21BenchmarkRegistrationEED2Ev(ptr noundef nonnull align 8 dereferenceable(24) %18) #5
  ret void

19:                                               ; preds = %1
  %20 = landingpad { ptr, i32 }
          catch ptr null
  %21 = extractvalue { ptr, i32 } %20, 0
  call void @__clang_call_terminate(ptr %21) #40
  unreachable
}

; Function Attrs: inlinehint mustprogress uwtable
define linkonce_odr void @_ZSt8_DestroyIPPKN5folly6detail21BenchmarkRegistrationES4_EvT_S6_RSaIT0_E(ptr noundef %0, ptr noundef %1, ptr noundef nonnull align 1 dereferenceable(1) %2) #6 comdat {
  %4 = alloca ptr, align 8
  %5 = alloca ptr, align 8
  %6 = alloca ptr, align 8
  store ptr %0, ptr %4, align 8, !tbaa !766
  store ptr %1, ptr %5, align 8, !tbaa !766
  store ptr %2, ptr %6, align 8, !tbaa !830
  %7 = load ptr, ptr %4, align 8, !tbaa !766
  %8 = load ptr, ptr %5, align 8, !tbaa !766
  call void @_ZSt8_DestroyIPPKN5folly6detail21BenchmarkRegistrationEEvT_S6_(ptr noundef %7, ptr noundef %8)
  ret void
}

; Function Attrs: mustprogress nounwind uwtable
define linkonce_odr noundef nonnull align 1 dereferenceable(1) ptr @_ZNSt12_Vector_baseIPKN5folly6detail21BenchmarkRegistrationESaIS4_EE19_M_get_Tp_allocatorEv(ptr noundef nonnull align 8 dereferenceable(24) %0) #0 comdat align 2 {
  %2 = alloca ptr, align 8
  store ptr %0, ptr %2, align 8, !tbaa !826
  %3 = load ptr, ptr %2, align 8
  %4 = getelementptr inbounds nuw %"struct.std::_Vector_base.134", ptr %3, i32 0, i32 0
  ret ptr %4
}

; Function Attrs: noinline noreturn nounwind uwtable
define linkonce_odr hidden void @__clang_call_terminate(ptr noundef %0) #11 comdat {
  %2 = call ptr @__cxa_begin_catch(ptr %0) #5
  call void @_ZSt9terminatev() #40
  unreachable
}

; Function Attrs: mustprogress nounwind uwtable
define linkonce_odr void @_ZNSt12_Vector_baseImSaImEED2Ev(ptr noundef nonnull align 8 dereferenceable(24) %0) unnamed_addr #0 comdat align 2 personality ptr @__gxx_personality_v0 {
  %2 = alloca ptr, align 8
  store ptr %0, ptr %2, align 8, !tbaa !836
  %3 = load ptr, ptr %2, align 8
  %4 = getelementptr inbounds nuw %"struct.std::_Vector_base.139", ptr %3, i32 0, i32 0
  %5 = getelementptr inbounds nuw %"struct.std::_Vector_base<unsigned long, std::allocator<unsigned long>>::_Vector_impl_data", ptr %4, i32 0, i32 0
  %6 = load ptr, ptr %5, align 8, !tbaa !823
  %7 = getelementptr inbounds nuw %"struct.std::_Vector_base.139", ptr %3, i32 0, i32 0
  %8 = getelementptr inbounds nuw %"struct.std::_Vector_base<unsigned long, std::allocator<unsigned long>>::_Vector_impl_data", ptr %7, i32 0, i32 2
  %9 = load ptr, ptr %8, align 8, !tbaa !845
  %10 = getelementptr inbounds nuw %"struct.std::_Vector_base.139", ptr %3, i32 0, i32 0
  %11 = getelementptr inbounds nuw %"struct.std::_Vector_base<unsigned long, std::allocator<unsigned long>>::_Vector_impl_data", ptr %10, i32 0, i32 0
  %12 = load ptr, ptr %11, align 8, !tbaa !823
  %13 = ptrtoint ptr %9 to i64
  %14 = ptrtoint ptr %12 to i64
  %15 = sub i64 %13, %14
  %16 = sdiv exact i64 %15, 8
  invoke void @_ZNSt12_Vector_baseImSaImEE13_M_deallocateEPmm(ptr noundef nonnull align 8 dereferenceable(24) %3, ptr noundef %6, i64 noundef %16)
          to label %17 unwind label %19

17:                                               ; preds = %1
  %18 = getelementptr inbounds nuw %"struct.std::_Vector_base.139", ptr %3, i32 0, i32 0
  call void @_ZNSt15__new_allocatorImED2Ev(ptr noundef nonnull align 8 dereferenceable(24) %18) #5
  ret void

19:                                               ; preds = %1
  %20 = landingpad { ptr, i32 }
          catch ptr null
  %21 = extractvalue { ptr, i32 } %20, 0
  call void @__clang_call_terminate(ptr %21) #40
  unreachable
}

; Function Attrs: inlinehint mustprogress uwtable
define linkonce_odr void @_ZSt8_DestroyIPmmEvT_S1_RSaIT0_E(ptr noundef %0, ptr noundef %1, ptr noundef nonnull align 1 dereferenceable(1) %2) #6 comdat {
  %4 = alloca ptr, align 8
  %5 = alloca ptr, align 8
  %6 = alloca ptr, align 8
  store ptr %0, ptr %4, align 8, !tbaa !132
  store ptr %1, ptr %5, align 8, !tbaa !132
  store ptr %2, ptr %6, align 8, !tbaa !840
  %7 = load ptr, ptr %4, align 8, !tbaa !132
  %8 = load ptr, ptr %5, align 8, !tbaa !132
  call void @_ZSt8_DestroyIPmEvT_S1_(ptr noundef %7, ptr noundef %8)
  ret void
}

; Function Attrs: mustprogress nounwind uwtable
define linkonce_odr noundef nonnull align 1 dereferenceable(1) ptr @_ZNSt12_Vector_baseImSaImEE19_M_get_Tp_allocatorEv(ptr noundef nonnull align 8 dereferenceable(24) %0) #0 comdat align 2 {
  %2 = alloca ptr, align 8
  store ptr %0, ptr %2, align 8, !tbaa !836
  %3 = load ptr, ptr %2, align 8
  %4 = getelementptr inbounds nuw %"struct.std::_Vector_base.139", ptr %3, i32 0, i32 0
  ret ptr %4
}

; Function Attrs: mustprogress nounwind uwtable
define linkonce_odr void @_ZNSt6vectorIPKN5folly6detail21BenchmarkRegistrationESaIS4_EED2Ev(ptr noundef nonnull align 8 dereferenceable(24) %0) unnamed_addr #0 comdat align 2 personality ptr @__gxx_personality_v0 {
  %2 = alloca ptr, align 8
  store ptr %0, ptr %2, align 8, !tbaa !779
  %3 = load ptr, ptr %2, align 8
  %4 = getelementptr inbounds nuw %"struct.std::_Vector_base.134", ptr %3, i32 0, i32 0
  %5 = getelementptr inbounds nuw %"struct.std::_Vector_base<const folly::detail::BenchmarkRegistration *, std::allocator<const folly::detail::BenchmarkRegistration *>>::_Vector_impl_data", ptr %4, i32 0, i32 0
  %6 = load ptr, ptr %5, align 8, !tbaa !814
  %7 = getelementptr inbounds nuw %"struct.std::_Vector_base.134", ptr %3, i32 0, i32 0
  %8 = getelementptr inbounds nuw %"struct.std::_Vector_base<const folly::detail::BenchmarkRegistration *, std::allocator<const folly::detail::BenchmarkRegistration *>>::_Vector_impl_data", ptr %7, i32 0, i32 1
  %9 = load ptr, ptr %8, align 8, !tbaa !815
  %10 = call noundef nonnull align 1 dereferenceable(1) ptr @_ZNSt12_Vector_baseIPKN5folly6detail21BenchmarkRegistrationESaIS4_EE19_M_get_Tp_allocatorEv(ptr noundef nonnull align 8 dereferenceable(24) %3) #5
  invoke void @_ZSt8_DestroyIPPKN5folly6detail21BenchmarkRegistrationES4_EvT_S6_RSaIT0_E(ptr noundef %6, ptr noundef %9, ptr noundef nonnull align 1 dereferenceable(1) %10)
          to label %11 unwind label %12

11:                                               ; preds = %1
  call void @_ZNSt12_Vector_baseIPKN5folly6detail21BenchmarkRegistrationESaIS4_EED2Ev(ptr noundef nonnull align 8 dereferenceable(24) %3) #5
  ret void

12:                                               ; preds = %1
  %13 = landingpad { ptr, i32 }
          catch ptr null
  %14 = extractvalue { ptr, i32 } %13, 0
  call void @__clang_call_terminate(ptr %14) #40
  unreachable
}

; Function Attrs: mustprogress nounwind uwtable
define linkonce_odr void @_ZNSt6vectorImSaImEED2Ev(ptr noundef nonnull align 8 dereferenceable(24) %0) unnamed_addr #0 comdat align 2 personality ptr @__gxx_personality_v0 {
  %2 = alloca ptr, align 8
  store ptr %0, ptr %2, align 8, !tbaa !821
  %3 = load ptr, ptr %2, align 8
  %4 = getelementptr inbounds nuw %"struct.std::_Vector_base.139", ptr %3, i32 0, i32 0
  %5 = getelementptr inbounds nuw %"struct.std::_Vector_base<unsigned long, std::allocator<unsigned long>>::_Vector_impl_data", ptr %4, i32 0, i32 0
  %6 = load ptr, ptr %5, align 8, !tbaa !823
  %7 = getelementptr inbounds nuw %"struct.std::_Vector_base.139", ptr %3, i32 0, i32 0
  %8 = getelementptr inbounds nuw %"struct.std::_Vector_base<unsigned long, std::allocator<unsigned long>>::_Vector_impl_data", ptr %7, i32 0, i32 1
  %9 = load ptr, ptr %8, align 8, !tbaa !844
  %10 = call noundef nonnull align 1 dereferenceable(1) ptr @_ZNSt12_Vector_baseImSaImEE19_M_get_Tp_allocatorEv(ptr noundef nonnull align 8 dereferenceable(24) %3) #5
  invoke void @_ZSt8_DestroyIPmmEvT_S1_RSaIT0_E(ptr noundef %6, ptr noundef %9, ptr noundef nonnull align 1 dereferenceable(1) %10)
          to label %11 unwind label %12

11:                                               ; preds = %1
  call void @_ZNSt12_Vector_baseImSaImEED2Ev(ptr noundef nonnull align 8 dereferenceable(24) %3) #5
  ret void

12:                                               ; preds = %1
  %13 = landingpad { ptr, i32 }
          catch ptr null
  %14 = extractvalue { ptr, i32 } %13, 0
  call void @__clang_call_terminate(ptr %14) #40
  unreachable
}

; Function Attrs: inlinehint mustprogress nounwind uwtable
define internal void @_ZN5folly12_GLOBAL__N_115BenchmarksToRunD2Ev(ptr noundef nonnull align 8 dereferenceable(64) %0) unnamed_addr #10 align 2 {
  %2 = alloca ptr, align 8
  store ptr %0, ptr %2, align 8, !tbaa !799
  %3 = load ptr, ptr %2, align 8
  %4 = getelementptr inbounds nuw %"struct.folly::(anonymous namespace)::BenchmarksToRun", ptr %3, i32 0, i32 3
  call void @_ZNSt6vectorImSaImEED2Ev(ptr noundef nonnull align 8 dereferenceable(24) %4) #5
  %5 = getelementptr inbounds nuw %"struct.folly::(anonymous namespace)::BenchmarksToRun", ptr %3, i32 0, i32 2
  call void @_ZNSt6vectorIPKN5folly6detail21BenchmarkRegistrationESaIS4_EED2Ev(ptr noundef nonnull align 8 dereferenceable(24) %5) #5
  ret void
}